Certificate:
    Data:
        Version: 3 (0x2)
        Serial Number: 0 (0x0)
    Signature Algorithm: sha256WithRSAEncryption
        Issuer: C=JP, ST=Tokyo, L=Shibuya, O=isucon
        Validity
            Not Before: Jul 23 07:36:01 2020 GMT
            Not After : Oct 26 07:36:01 2022 GMT
        Subject: C=JP, ST=Tokyo, O=isucon, CN=isucon9.catatsuy.org
        Subject Public Key Info:
            Public Key Algorithm: rsaEncryption
                Public-Key: (2048 bit)
                Modulus:
                    00:c4:bb:8e:89:3b:a4:0f:f0:79:20:95:8f:be:5f:
                    a7:5b:e3:4c:6c:11:92:db:a0:6c:2e:ec:86:81:6e:
                    86:3c:11:b1:c4:2e:29:06:84:55:ea:d6:8a:2c:64:
                    c0:2c:bf:6e:e1:c8:64:9d:87:0e:ba:a5:fa:bd:81:
                    21:7e:86:8e:c2:62:38:56:44:85:87:f2:07:df:45:
                    6e:36:75:d6:0e:15:3d:08:c2:5c:e3:1e:77:03:72:
                    da:e3:0f:38:0d:e2:4d:58:0d:62:b6:ad:05:9e:03:
                    d2:af:2d:80:1e:77:23:0f:65:46:96:86:b8:7b:a9:
                    95:cf:16:45:0c:5d:df:60:e3:a1:59:41:00:64:cf:
                    25:ba:9a:d1:6d:fd:9d:b0:a3:ac:af:65:12:aa:73:
                    76:f6:47:e4:e4:69:ac:e2:cc:18:cb:6c:a7:42:96:
                    ec:4d:db:f3:ef:fd:ee:e4:9d:97:28:6e:36:13:5e:
                    ce:13:22:6d:6c:71:90:dc:01:3b:13:ad:b3:3b:c5:
                    1d:e9:b1:43:48:e1:26:07:3a:34:e7:0b:07:e0:90:
                    50:e8:11:88:39:64:4d:36:e4:82:24:a2:18:9e:66:
                    47:dc:d9:17:e3:d0:27:29:15:54:16:66:2f:d1:87:
                    1b:94:02:f7:4f:71:51:28:1c:b2:db:05:4d:a3:fa:
                    82:25
                Exponent: 65537 (0x10001)
        X509v3 extensions:
            X509v3 Basic Constraints: 
                CA:FALSE
            Netscape Comment: 
                OpenSSL Generated Certificate
            X509v3 Subject Key Identifier: 
                56:DF:48:10:40:7E:52:77:67:56:29:3F:DD:C1:12:71:22:C6:6A:B0
            X509v3 Authority Key Identifier: 
                DirName:/C=JP/ST=Tokyo/L=Shibuya/O=isucon
                serial:E8:C7:8D:F0:8C:73:B1:72

    Signature Algorithm: sha256WithRSAEncryption
         ce:0e:e7:cd:c1:d5:27:05:1b:ef:3a:94:55:e0:fc:84:a4:6c:
         7e:f2:c6:ae:d8:7c:a3:0f:79:14:d2:c9:70:08:89:3e:3e:18:
         46:77:0b:12:64:ee:5e:5d:b3:16:13:49:e9:c1:15:73:d7:92:
         2e:af:6d:4e:f0:53:ea:02:df:4d:18:44:5b:ec:a0:04:e7:c7:
         4f:46:76:36:1c:4a:bf:ed:85:9d:13:97:e5:35:61:29:21:ff:
         0b:62:41:94:4d:c9:48:9c:82:04:dd:42:6c:33:d4:bd:40:fe:
         46:d7:69:49:61:2b:33:03:b5:29:fa:82:65:c2:8d:c7:35:9b:
         e1:e1:5c:fe:ce:83:db:33:29:eb:4b:49:19:c8:8b:01:8d:cb:
         fb:a4:c7:71:a6:56:93:89:f8:2a:a3:03:c0:42:4f:d4:b9:ab:
         a5:2f:ff:25:a6:fd:a9:93:99:d1:e9:74:91:6e:fb:6d:29:6f:
         3a:ea:99:cd:33:b3:0b:df:a7:66:40:a1:9d:b8:5c:5d:02:2c:
         34:57:b1:82:f0:35:97:fb:1a:a6:df:1b:51:46:4d:06:81:9c:
         23:c9:65:bc:63:2f:f4:91:92:26:d0:ae:d4:0e:8d:cc:e7:11:
         38:2f:e2:90:3b:a0:51:2f:9d:41:be:cb:a7:e6:ee:ad:bb:5f:
         77:9d:a3:9d
-----BEGIN CERTIFICATE-----
MIIDwDCCAqigAwIBAgIBADANBgkqhkiG9w0BAQsFADBAMQswCQYDVQQGEwJKUDEO
MAwGA1UECAwFVG9reW8xEDAOBgNVBAcMB1NoaWJ1eWExDzANBgNVBAoMBmlzdWNv
bjAeFw0yMDA3MjMwNzM2MDFaFw0yMjEwMjYwNzM2MDFaME0xCzAJBgNVBAYTAkpQ
MQ4wDAYDVQQIDAVUb2t5bzEPMA0GA1UECgwGaXN1Y29uMR0wGwYDVQQDDBRpc3Vj
b245LmNhdGF0c3V5Lm9yZzCCASIwDQYJKoZIhvcNAQEBBQADggEPADCCAQoCggEB
AMS7jok7pA/weSCVj75fp1vjTGwRktugbC7shoFuhjwRscQuKQaEVerWiixkwCy/
buHIZJ2HDrql+r2BIX6GjsJiOFZEhYfyB99FbjZ11g4VPQjCXOMedwNy2uMPOA3i
TVgNYratBZ4D0q8tgB53Iw9lRpaGuHuplc8WRQxd32DjoVlBAGTPJbqa0W39nbCj
rK9lEqpzdvZH5ORprOLMGMtsp0KW7E3b8+/97uSdlyhuNhNezhMibWxxkNwBOxOt
szvFHemxQ0jhJgc6NOcLB+CQUOgRiDlkTTbkgiSiGJ5mR9zZF+PQJykVVBZmL9GH
G5QC909xUSgcstsFTaP6giUCAwEAAaOBtzCBtDAJBgNVHRMEAjAAMCwGCWCGSAGG
+EIBDQQfFh1PcGVuU1NMIEdlbmVyYXRlZCBDZXJ0aWZpY2F0ZTAdBgNVHQ4EFgQU
Vt9IEEB+UndnVik/3cEScSLGarAwWgYDVR0jBFMwUaFEpEIwQDELMAkGA1UEBhMC
SlAxDjAMBgNVBAgMBVRva3lvMRAwDgYDVQQHDAdTaGlidXlhMQ8wDQYDVQQKDAZp
c3Vjb26CCQDox43wjHOxcjANBgkqhkiG9w0BAQsFAAOCAQEAzg7nzcHVJwUb7zqU
VeD8hKRsfvLGrth8ow95FNLJcAiJPj4YRncLEmTuXl2zFhNJ6cEVc9eSLq9tTvBT
6gLfTRhEW+ygBOfHT0Z2NhxKv+2FnROX5TVhKSH/C2JBlE3JSJyCBN1CbDPUvUD+
RtdpSWErMwO1KfqCZcKNxzWb4eFc/s6D2zMp60tJGciLAY3L+6THcaZWk4n4KqMD
wEJP1LmrpS//Jab9qZOZ0el0kW77bSlvOuqZzTOzC9+nZkChnbhcXQIsNFexgvA1
l/sapt8bUUZNBoGcI8llvGMv9JGSJtCu1A6NzOcROC/ikDugUS+dQb7Lp+burbtf
d52jnQ==
-----END CERTIFICATE-----
